target datalayout = "e-m:e-p270:32:32-p271:32:32-p272:64:64-i64:64-i128:128-f80:128-n8:16:32:64-S128"
target triple = "x86_64-pc-linux-gnu"

%struct._value_string_ext = type { ptr, i32, i32, ptr, ptr }
%struct._packet_info = type { ptr, ptr, i32, i32, %struct.nstime_t, %struct.nstime_t, %struct.nstime_t, i8, ptr, ptr, ptr, ptr, %struct._address, %struct._address, %struct._address, %struct._address, %struct._address, %struct._address, i32, ptr, i8, [3 x i8], %struct.anon, i32, i32, i32, i32, ptr, i8, ptr, ptr, i16, i16, i32, i32, i16, i32, i32, ptr, ptr, ptr, i8, i8, i16, i16, i16, i32, i16, i16, ptr, ptr, ptr, ptr, ptr, i32, i32 }
%struct.nstime_t = type { i64, i32 }
%struct._address = type { i32, i32, ptr, ptr }
%struct.anon = type { i8, [3 x i8] }

@E212_codes_ext = hidden global %struct._value_string_ext { ptr @_try_val_to_str_ext_init, i32 0, i32 799, ptr @E212_codes, ptr @.str }, align 8
@mcc_mnc_2digits_codes_ext = hidden global %struct._value_string_ext { ptr @_try_val_to_str_ext_init, i32 0, i32 1757, ptr @mcc_mnc_2digits_codes, ptr @.str.1 }, align 8
@mcc_mnc_3digits_codes_ext = hidden global %struct._value_string_ext { ptr @_try_val_to_str_ext_init, i32 0, i32 698, ptr @mcc_mnc_3digits_codes, ptr @.str.2 }, align 8
@hf_E212_mcc = internal global i32 0, align 4
@hf_E212_mnc = internal global i32 0, align 4
@.str.3 = private unnamed_addr constant [5 x i8] c"%03u\00", align 1
@.str.4 = private unnamed_addr constant [8 x i8] c"%s (%s)\00", align 1
@.str.5 = private unnamed_addr constant [8 x i8] c"Unknown\00", align 1
@.str.8 = private unnamed_addr constant [5 x i8] c"%02u\00", align 1
@.str.10 = private unnamed_addr constant [9 x i8] c"Unknown1\00", align 1
@.str.11 = private unnamed_addr constant [9 x i8] c"Unknown2\00", align 1

; Function Attrs: null_pointer_is_valid sspstrong uwtable
define i32 @dissect_e212_mcc_mnc_in_utf8_address(ptr noundef %0, ptr noundef %1, ptr noundef %2, i32 noundef %3) #1 {
  %5 = alloca i32, align 4
  %6 = alloca ptr, align 8
  %7 = alloca ptr, align 8
  %8 = alloca ptr, align 8
  %9 = alloca i32, align 4
  %10 = alloca i16, align 2
  %11 = alloca i16, align 2
  %12 = alloca ptr, align 8
  %13 = alloca ptr, align 8
  %14 = alloca i8, align 1
  %15 = alloca i32, align 4
  store ptr %0, ptr %6, align 8
  store ptr %1, ptr %7, align 8
  store ptr %2, ptr %8, align 8
  store i32 %3, ptr %9, align 4
  call void @llvm.lifetime.start.p0(i64 2, ptr %10) #6
  store i16 0, ptr %10, align 2
  call void @llvm.lifetime.start.p0(i64 2, ptr %11) #6
  store i16 0, ptr %11, align 2
  call void @llvm.lifetime.start.p0(i64 8, ptr %12) #6
  call void @llvm.lifetime.start.p0(i64 8, ptr %13) #6
  call void @llvm.lifetime.start.p0(i64 1, ptr %14) #6
  store i8 0, ptr %14, align 1
  %16 = load ptr, ptr %7, align 8
  %17 = getelementptr inbounds nuw %struct._packet_info, ptr %16, i32 0, i32 51
  %18 = load ptr, ptr %17, align 8
  %19 = load ptr, ptr %6, align 8
  %20 = load i32, ptr %9, align 4
  %21 = call ptr @tvb_get_string_enc(ptr noundef %18, ptr noundef %19, i32 noundef %20, i32 noundef 3, i32 noundef 2)
  %22 = call zeroext i1 @ws_strtou16(ptr noundef %21, ptr noundef null, ptr noundef %10)
  %23 = load ptr, ptr %7, align 8
  %24 = getelementptr inbounds nuw %struct._packet_info, ptr %23, i32 0, i32 51
  %25 = load ptr, ptr %24, align 8
  %26 = load ptr, ptr %6, align 8
  %27 = load i32, ptr %9, align 4
  %28 = add i32 %27, 3
  %29 = call ptr @tvb_get_string_enc(ptr noundef %25, ptr noundef %26, i32 noundef %28, i32 noundef 2, i32 noundef 2)
  %30 = call zeroext i1 @ws_strtou16(ptr noundef %29, ptr noundef null, ptr noundef %11)
  %31 = load i16, ptr %10, align 2
  %32 = zext i16 %31 to i32
  %33 = mul i32 %32, 100
  %34 = load i16, ptr %11, align 2
  %35 = zext i16 %34 to i32
  %36 = add i32 %33, %35
  %37 = call ptr @try_val_to_str_ext(i32 noundef %36, ptr noundef @mcc_mnc_2digits_codes_ext)
  %38 = icmp ne ptr %37, null
  br i1 %38, label %55, label %39

39:                                               ; preds = %4
  %40 = load ptr, ptr %6, align 8
  %41 = load i32, ptr %9, align 4
  %42 = add i32 %41, 3
  %43 = call i32 @tvb_reported_length_remaining(ptr noundef %40, i32 noundef %42)
  %44 = icmp sgt i32 %43, 2
  br i1 %44, label %45, label %54

45:                                               ; preds = %39
  %46 = load ptr, ptr %7, align 8
  %47 = getelementptr inbounds nuw %struct._packet_info, ptr %46, i32 0, i32 51
  %48 = load ptr, ptr %47, align 8
  %49 = load ptr, ptr %6, align 8
  %50 = load i32, ptr %9, align 4
  %51 = add i32 %50, 3
  %52 = call ptr @tvb_get_string_enc(ptr noundef %48, ptr noundef %49, i32 noundef %51, i32 noundef 3, i32 noundef 2)
  %53 = call zeroext i1 @ws_strtou16(ptr noundef %52, ptr noundef null, ptr noundef %11)
  store i8 1, ptr %14, align 1
  br label %54

54:                                               ; preds = %45, %39
  br label %55

55:                                               ; preds = %54, %4
  %56 = load ptr, ptr %7, align 8
  %57 = getelementptr inbounds nuw %struct._packet_info, ptr %56, i32 0, i32 51
  %58 = load ptr, ptr %57, align 8
  %59 = load i16, ptr %10, align 2
  %60 = zext i16 %59 to i32
  %61 = call noalias ptr (ptr, ptr, ...) @wmem_strdup_printf(ptr noundef %58, ptr noundef @.str.3, i32 noundef %60)
  store ptr %61, ptr %12, align 8
  %62 = load ptr, ptr %8, align 8
  %63 = load i32, ptr @hf_E212_mcc, align 4
  %64 = load ptr, ptr %6, align 8
  %65 = load i32, ptr %9, align 4
  %66 = load ptr, ptr %12, align 8
  %67 = load i16, ptr %10, align 2
  %68 = zext i16 %67 to i32
  %69 = call ptr @val_to_str_ext_const(i32 noundef %68, ptr noundef @E212_codes_ext, ptr noundef @.str.5)
  %70 = load ptr, ptr %12, align 8
  %71 = call ptr (ptr, i32, ptr, i32, i32, ptr, ptr, ...) @proto_tree_add_string_format_value(ptr noundef %62, i32 noundef %63, ptr noundef %64, i32 noundef %65, i32 noundef 3, ptr noundef %66, ptr noundef @.str.4, ptr noundef %69, ptr noundef %70)
  %72 = load i8, ptr %14, align 1, !range !6, !noundef !7
  %73 = trunc i8 %72 to i1
  br i1 %73, label %74, label %96

74:                                               ; preds = %55
  %75 = load ptr, ptr %7, align 8
  %76 = getelementptr inbounds nuw %struct._packet_info, ptr %75, i32 0, i32 51
  %77 = load ptr, ptr %76, align 8
  %78 = load i16, ptr %11, align 2
  %79 = zext i16 %78 to i32
  %80 = call noalias ptr (ptr, ptr, ...) @wmem_strdup_printf(ptr noundef %77, ptr noundef @.str.3, i32 noundef %79)
  store ptr %80, ptr %13, align 8
  %81 = load ptr, ptr %8, align 8
  %82 = load i32, ptr @hf_E212_mnc, align 4
  %83 = load ptr, ptr %6, align 8
  %84 = load i32, ptr %9, align 4
  %85 = add i32 %84, 3
  %86 = load ptr, ptr %13, align 8
  %87 = load i16, ptr %10, align 2
  %88 = zext i16 %87 to i32
  %89 = mul i32 %88, 1000
  %90 = load i16, ptr %11, align 2
  %91 = zext i16 %90 to i32
  %92 = add i32 %89, %91
  %93 = call ptr @val_to_str_ext_const(i32 noundef %92, ptr noundef @mcc_mnc_3digits_codes_ext, ptr noundef @.str.10)
  %94 = load ptr, ptr %13, align 8
  %95 = call ptr (ptr, i32, ptr, i32, i32, ptr, ptr, ...) @proto_tree_add_string_format_value(ptr noundef %81, i32 noundef %82, ptr noundef %83, i32 noundef %85, i32 noundef 3, ptr noundef %86, ptr noundef @.str.4, ptr noundef %93, ptr noundef %94)
  br label %118

96:                                               ; preds = %55
  %97 = load ptr, ptr %7, align 8
  %98 = getelementptr inbounds nuw %struct._packet_info, ptr %97, i32 0, i32 51
  %99 = load ptr, ptr %98, align 8
  %100 = load i16, ptr %11, align 2
  %101 = zext i16 %100 to i32
  %102 = call noalias ptr (ptr, ptr, ...) @wmem_strdup_printf(ptr noundef %99, ptr noundef @.str.8, i32 noundef %101)
  store ptr %102, ptr %13, align 8
  %103 = load ptr, ptr %8, align 8
  %104 = load i32, ptr @hf_E212_mnc, align 4
  %105 = load ptr, ptr %6, align 8
  %106 = load i32, ptr %9, align 4
  %107 = add i32 %106, 3
  %108 = load ptr, ptr %13, align 8
  %109 = load i16, ptr %10, align 2
  %110 = zext i16 %109 to i32
  %111 = mul i32 %110, 100
  %112 = load i16, ptr %11, align 2
  %113 = zext i16 %112 to i32
  %114 = add i32 %111, %113
  %115 = call ptr @val_to_str_ext_const(i32 noundef %114, ptr noundef @mcc_mnc_2digits_codes_ext, ptr noundef @.str.11)
  %116 = load ptr, ptr %13, align 8
  %117 = call ptr (ptr, i32, ptr, i32, i32, ptr, ptr, ...) @proto_tree_add_string_format_value(ptr noundef %103, i32 noundef %104, ptr noundef %105, i32 noundef %107, i32 noundef 2, ptr noundef %108, ptr noundef @.str.4, ptr noundef %115, ptr noundef %116)
  br label %118

118:                                              ; preds = %96, %74
  %119 = load i8, ptr %14, align 1, !range !6, !noundef !7
  %120 = trunc i8 %119 to i1
  br i1 %120, label %121, label %122

121:                                              ; preds = %118
  store i32 6, ptr %5, align 4
  store i32 1, ptr %15, align 4
  br label %123

122:                                              ; preds = %118
  store i32 5, ptr %5, align 4
  store i32 1, ptr %15, align 4
  br label %123

123:                                              ; preds = %122, %121
  call void @llvm.lifetime.end.p0(i64 1, ptr %14) #6
  call void @llvm.lifetime.end.p0(i64 8, ptr %13) #6
  call void @llvm.lifetime.end.p0(i64 8, ptr %12) #6
  call void @llvm.lifetime.end.p0(i64 2, ptr %11) #6
  call void @llvm.lifetime.end.p0(i64 2, ptr %10) #6
  %124 = load i32, ptr %5, align 4
  ret i32 %124
}