; Function Attrs: null_pointer_is_valid sspstrong uwtable
define range(i32 5, 7) i32 @dissect_e212_mcc_mnc_in_utf8_address(ptr noundef %0, ptr noundef readonly captures(none) %1, ptr noundef %2, i32 noundef %3) local_unnamed_addr #1 {
  %5 = alloca i16, align 2
  %6 = alloca i16, align 2
  call void @llvm.lifetime.start.p0(i64 2, ptr nonnull %5) #4
  store i16 0, ptr %5, align 2
  call void @llvm.lifetime.start.p0(i64 2, ptr nonnull %6) #4
  store i16 0, ptr %6, align 2
  %7 = getelementptr inbounds nuw i8, ptr %1, i64 408
  %8 = load ptr, ptr %7, align 8
  %9 = tail call ptr @tvb_get_string_enc(ptr noundef %8, ptr noundef %0, i32 noundef %3, i32 noundef 3, i32 noundef 2)
  %10 = call zeroext i1 @ws_strtou16(ptr noundef %9, ptr noundef null, ptr noundef nonnull %5)
  %11 = load ptr, ptr %7, align 8
  %12 = add i32 %3, 3
  %13 = call ptr @tvb_get_string_enc(ptr noundef %11, ptr noundef %0, i32 noundef %12, i32 noundef 2, i32 noundef 2)
  %14 = call zeroext i1 @ws_strtou16(ptr noundef %13, ptr noundef null, ptr noundef nonnull %6)
  %15 = load i16, ptr %5, align 2
  %16 = zext i16 %15 to i32
  %17 = mul nuw nsw i32 %16, 100
  %18 = load i16, ptr %6, align 2
  %19 = zext i16 %18 to i32
  %20 = add nuw nsw i32 %17, %19
  %21 = call ptr @try_val_to_str_ext(i32 noundef %20, ptr noundef nonnull @mcc_mnc_2digits_codes_ext)
  %.not = icmp eq ptr %21, null
  br i1 %.not, label %22, label %.critedge

22:                                               ; preds = %4
  %23 = call i32 @tvb_reported_length_remaining(ptr noundef %0, i32 noundef %12)
  %24 = icmp sgt i32 %23, 2
  br i1 %24, label %25, label %.critedge

25:                                               ; preds = %22
  %26 = load ptr, ptr %7, align 8
  %27 = call ptr @tvb_get_string_enc(ptr noundef %26, ptr noundef %0, i32 noundef %12, i32 noundef 3, i32 noundef 2)
  %28 = call zeroext i1 @ws_strtou16(ptr noundef %27, ptr noundef null, ptr noundef nonnull %6)
  %29 = load ptr, ptr %7, align 8
  %30 = load i16, ptr %5, align 2
  %31 = zext i16 %30 to i32
  %32 = call noalias ptr (ptr, ptr, ...) @wmem_strdup_printf(ptr noundef %29, ptr noundef nonnull @.str.3, i32 noundef %31)
  %33 = load i32, ptr @hf_E212_mcc, align 4
  %34 = load i16, ptr %5, align 2
  %35 = zext i16 %34 to i32
  %36 = call ptr @val_to_str_ext_const(i32 noundef %35, ptr noundef nonnull @E212_codes_ext, ptr noundef nonnull @.str.5)
  %37 = call ptr (ptr, i32, ptr, i32, i32, ptr, ptr, ...) @proto_tree_add_string_format_value(ptr noundef %2, i32 noundef %33, ptr noundef %0, i32 noundef %3, i32 noundef 3, ptr noundef %32, ptr noundef nonnull @.str.4, ptr noundef %36, ptr noundef %32)
  %38 = load ptr, ptr %7, align 8
  %39 = load i16, ptr %6, align 2
  %40 = zext i16 %39 to i32
  %41 = call noalias ptr (ptr, ptr, ...) @wmem_strdup_printf(ptr noundef %38, ptr noundef nonnull @.str.3, i32 noundef %40)
  %42 = load i32, ptr @hf_E212_mnc, align 4
  %43 = load i16, ptr %5, align 2
  %44 = zext i16 %43 to i32
  %45 = mul nuw nsw i32 %44, 1000
  %46 = load i16, ptr %6, align 2
  %47 = zext i16 %46 to i32
  %48 = add nuw nsw i32 %45, %47
  %49 = call ptr @val_to_str_ext_const(i32 noundef %48, ptr noundef nonnull @mcc_mnc_3digits_codes_ext, ptr noundef nonnull @.str.10)
  %50 = call ptr (ptr, i32, ptr, i32, i32, ptr, ptr, ...) @proto_tree_add_string_format_value(ptr noundef %2, i32 noundef %42, ptr noundef %0, i32 noundef %12, i32 noundef 3, ptr noundef %41, ptr noundef nonnull @.str.4, ptr noundef %49, ptr noundef %41)
  br label %73

.critedge:                                        ; preds = %22, %4
  %51 = load ptr, ptr %7, align 8
  %52 = load i16, ptr %5, align 2
  %53 = zext i16 %52 to i32
  %54 = call noalias ptr (ptr, ptr, ...) @wmem_strdup_printf(ptr noundef %51, ptr noundef nonnull @.str.3, i32 noundef %53)
  %55 = load i32, ptr @hf_E212_mcc, align 4
  %56 = load i16, ptr %5, align 2
  %57 = zext i16 %56 to i32
  %58 = call ptr @val_to_str_ext_const(i32 noundef %57, ptr noundef nonnull @E212_codes_ext, ptr noundef nonnull @.str.5)
  %59 = call ptr (ptr, i32, ptr, i32, i32, ptr, ptr, ...) @proto_tree_add_string_format_value(ptr noundef %2, i32 noundef %55, ptr noundef %0, i32 noundef %3, i32 noundef 3, ptr noundef %54, ptr noundef nonnull @.str.4, ptr noundef %58, ptr noundef %54)
  %60 = load ptr, ptr %7, align 8
  %61 = load i16, ptr %6, align 2
  %62 = zext i16 %61 to i32
  %63 = call noalias ptr (ptr, ptr, ...) @wmem_strdup_printf(ptr noundef %60, ptr noundef nonnull @.str.8, i32 noundef %62)
  %64 = load i32, ptr @hf_E212_mnc, align 4
  %65 = load i16, ptr %5, align 2
  %66 = zext i16 %65 to i32
  %67 = mul nuw nsw i32 %66, 100
  %68 = load i16, ptr %6, align 2
  %69 = zext i16 %68 to i32
  %70 = add nuw nsw i32 %67, %69
  %71 = call ptr @val_to_str_ext_const(i32 noundef %70, ptr noundef nonnull @mcc_mnc_2digits_codes_ext, ptr noundef nonnull @.str.11)
  %72 = call ptr (ptr, i32, ptr, i32, i32, ptr, ptr, ...) @proto_tree_add_string_format_value(ptr noundef %2, i32 noundef %64, ptr noundef %0, i32 noundef %12, i32 noundef 2, ptr noundef %63, ptr noundef nonnull @.str.4, ptr noundef %71, ptr noundef %63)
  br label %73

73:                                               ; preds = %.critedge, %25
  %. = phi i32 [ 5, %.critedge ], [ 6, %25 ]
  call void @llvm.lifetime.end.p0(i64 2, ptr nonnull %6) #4
  call void @llvm.lifetime.end.p0(i64 2, ptr nonnull %5) #4
  ret i32 %.
}